target datalayout = "e-m:e-p270:32:32-p271:32:32-p272:64:64-i64:64-i128:128-f80:128-n8:16:32:64-S128"
target triple = "x86_64-pc-linux-gnu"

%struct.stats = type { i64, i64, i64, i64, i64, i64, i64, i64, i64, i64, i64, i64, i64, i64, i64, i64, i64, i64, i64, i64, i64, i64, i64, i64, %struct.timeval, i64, i64 }
%struct.timeval = type { i64, i64 }
%struct.stats_state = type { i64, i64, i64, i64, float, i32, i32, i32, i32, i8, i8, i8, i8 }

@stats = dso_local global %struct.stats zeroinitializer, align 8
@stats_state = dso_local global %struct.stats_state zeroinitializer, align 8
@.str.25 = private unnamed_addr constant [3 x i8] c"%u\00", align 1
@.str.39 = private unnamed_addr constant [5 x i8] c"%llu\00", align 1
@.str.187 = private unnamed_addr constant [6 x i8] c"bytes\00", align 1
@.str.188 = private unnamed_addr constant [11 x i8] c"curr_items\00", align 1
@.str.189 = private unnamed_addr constant [12 x i8] c"total_items\00", align 1
@.str.190 = private unnamed_addr constant [22 x i8] c"slab_global_page_pool\00", align 1
@.str.191 = private unnamed_addr constant [6 x i8] c"items\00", align 1
@.str.192 = private unnamed_addr constant [6 x i8] c"slabs\00", align 1
@.str.193 = private unnamed_addr constant [6 x i8] c"sizes\00", align 1

; Function Attrs: nounwind uwtable
define internal i32 @nz_strcmp(i32 noundef %0, ptr noundef %1, ptr noundef %2) #0 {
  %4 = alloca i32, align 4
  %5 = alloca ptr, align 8
  %6 = alloca ptr, align 8
  %7 = alloca i32, align 4
  store i32 %0, ptr %4, align 4, !tbaa !8
  store ptr %1, ptr %5, align 8, !tbaa !29
  store ptr %2, ptr %6, align 8, !tbaa !29
  call void @llvm.lifetime.start.p0(i64 4, ptr %7) #15
  %8 = load ptr, ptr %6, align 8, !tbaa !29
  %9 = call i64 @strlen(ptr noundef %8) #18
  %10 = trunc i64 %9 to i32
  store i32 %10, ptr %7, align 4, !tbaa !8
  %11 = load i32, ptr %7, align 4, !tbaa !8
  %12 = load i32, ptr %4, align 4, !tbaa !8
  %13 = icmp eq i32 %11, %12
  br i1 %13, label %14, label %21

14:                                               ; preds = %3
  %15 = load ptr, ptr %5, align 8, !tbaa !29
  %16 = load ptr, ptr %6, align 8, !tbaa !29
  %17 = load i32, ptr %7, align 4, !tbaa !8
  %18 = sext i32 %17 to i64
  %19 = call i32 @strncmp(ptr noundef %15, ptr noundef %16, i64 noundef %18) #18
  %20 = icmp eq i32 %19, 0
  br label %21

21:                                               ; preds = %14, %3
  %22 = phi i1 [ false, %3 ], [ %20, %14 ]
  %23 = select i1 %22, i32 0, i32 -1
  call void @llvm.lifetime.end.p0(i64 4, ptr %7) #15
  ret i32 %23
}

; Function Attrs: nounwind uwtable
define dso_local zeroext i1 @get_stats(ptr noundef %0, i32 noundef %1, ptr noundef %2, ptr noundef %3) #0 {
  %5 = alloca ptr, align 8
  %6 = alloca i32, align 4
  %7 = alloca ptr, align 8
  %8 = alloca ptr, align 8
  %9 = alloca i8, align 1
  store ptr %0, ptr %5, align 8, !tbaa !29
  store i32 %1, ptr %6, align 4, !tbaa !8
  store ptr %2, ptr %7, align 8, !tbaa !68
  store ptr %3, ptr %8, align 8, !tbaa !68
  call void @llvm.lifetime.start.p0(i64 1, ptr %9) #15
  store i8 1, ptr %9, align 1, !tbaa !57
  %10 = load ptr, ptr %7, align 8, !tbaa !68
  %11 = icmp ne ptr %10, null
  br i1 %11, label %12, label %59

12:                                               ; preds = %4
  %13 = load ptr, ptr %5, align 8, !tbaa !29
  %14 = icmp ne ptr %13, null
  br i1 %14, label %30, label %15

15:                                               ; preds = %12
  call void @STATS_LOCK()
  %16 = load ptr, ptr %7, align 8, !tbaa !68
  %17 = load ptr, ptr %8, align 8, !tbaa !68
  %18 = load i64, ptr getelementptr inbounds nuw (%struct.stats_state, ptr @stats_state, i32 0, i32 1), align 8, !tbaa !320
  call void (ptr, ptr, ptr, ptr, ...) @append_stat(ptr noundef @.str.187, ptr noundef %16, ptr noundef %17, ptr noundef @.str.39, i64 noundef %18)
  %19 = load ptr, ptr %7, align 8, !tbaa !68
  %20 = load ptr, ptr %8, align 8, !tbaa !68
  %21 = load i64, ptr @stats_state, align 8, !tbaa !321
  call void (ptr, ptr, ptr, ptr, ...) @append_stat(ptr noundef @.str.188, ptr noundef %19, ptr noundef %20, ptr noundef @.str.39, i64 noundef %21)
  %22 = load ptr, ptr %7, align 8, !tbaa !68
  %23 = load ptr, ptr %8, align 8, !tbaa !68
  %24 = load i64, ptr @stats, align 8, !tbaa !322
  call void (ptr, ptr, ptr, ptr, ...) @append_stat(ptr noundef @.str.189, ptr noundef %22, ptr noundef %23, ptr noundef @.str.39, i64 noundef %24)
  call void @STATS_UNLOCK()
  %25 = load ptr, ptr %7, align 8, !tbaa !68
  %26 = load ptr, ptr %8, align 8, !tbaa !68
  %27 = call i32 @global_page_pool_size(ptr noundef null)
  call void (ptr, ptr, ptr, ptr, ...) @append_stat(ptr noundef @.str.190, ptr noundef %25, ptr noundef %26, ptr noundef @.str.25, i32 noundef %27)
  %28 = load ptr, ptr %7, align 8, !tbaa !68
  %29 = load ptr, ptr %8, align 8, !tbaa !68
  call void @item_stats_totals(ptr noundef %28, ptr noundef %29)
  br label %58

30:                                               ; preds = %12
  %31 = load i32, ptr %6, align 4, !tbaa !8
  %32 = load ptr, ptr %5, align 8, !tbaa !29
  %33 = call i32 @nz_strcmp(i32 noundef %31, ptr noundef %32, ptr noundef @.str.191)
  %34 = icmp eq i32 %33, 0
  br i1 %34, label %35, label %38

35:                                               ; preds = %30
  %36 = load ptr, ptr %7, align 8, !tbaa !68
  %37 = load ptr, ptr %8, align 8, !tbaa !68
  call void @item_stats(ptr noundef %36, ptr noundef %37)
  br label %57

38:                                               ; preds = %30
  %39 = load i32, ptr %6, align 4, !tbaa !8
  %40 = load ptr, ptr %5, align 8, !tbaa !29
  %41 = call i32 @nz_strcmp(i32 noundef %39, ptr noundef %40, ptr noundef @.str.192)
  %42 = icmp eq i32 %41, 0
  br i1 %42, label %43, label %46

43:                                               ; preds = %38
  %44 = load ptr, ptr %7, align 8, !tbaa !68
  %45 = load ptr, ptr %8, align 8, !tbaa !68
  call void @slabs_stats(ptr noundef %44, ptr noundef %45)
  br label %56

46:                                               ; preds = %38
  %47 = load i32, ptr %6, align 4, !tbaa !8
  %48 = load ptr, ptr %5, align 8, !tbaa !29
  %49 = call i32 @nz_strcmp(i32 noundef %47, ptr noundef %48, ptr noundef @.str.193)
  %50 = icmp eq i32 %49, 0
  br i1 %50, label %51, label %54

51:                                               ; preds = %46
  %52 = load ptr, ptr %7, align 8, !tbaa !68
  %53 = load ptr, ptr %8, align 8, !tbaa !68
  call void @item_stats_sizes(ptr noundef %52, ptr noundef %53)
  br label %55

54:                                               ; preds = %46
  store i8 0, ptr %9, align 1, !tbaa !57
  br label %55

55:                                               ; preds = %54, %51
  br label %56

56:                                               ; preds = %55, %43
  br label %57

57:                                               ; preds = %56, %35
  br label %58

58:                                               ; preds = %57, %15
  br label %60

59:                                               ; preds = %4
  store i8 0, ptr %9, align 1, !tbaa !57
  br label %60

60:                                               ; preds = %59, %58
  %61 = load i8, ptr %9, align 1, !tbaa !57, !range !59, !noundef !60
  %62 = trunc i8 %61 to i1
  call void @llvm.lifetime.end.p0(i64 1, ptr %9) #15
  ret i1 %62
}