; Function Attrs: nounwind uwtable
define dso_local noundef zeroext i1 @get_stats(ptr noundef readonly captures(address_is_null) %0, i32 noundef %1, ptr noundef %2, ptr noundef %3) local_unnamed_addr #1 {
  %.not = icmp eq ptr %2, null
  br i1 %.not, label %nz_strcmp.exit32.thread, label %5

5:                                                ; preds = %4
  %.not26 = icmp eq ptr %0, null
  br i1 %.not26, label %6, label %11

6:                                                ; preds = %5
  tail call void @STATS_LOCK() #34
  %7 = load i64, ptr getelementptr inbounds nuw (i8, ptr @stats_state, i64 8), align 8, !tbaa !311
  tail call void (ptr, ptr, ptr, ptr, ...) @append_stat(ptr noundef nonnull @.str.187, ptr noundef nonnull %2, ptr noundef %3, ptr noundef nonnull @.str.39, i64 noundef %7)
  %8 = load i64, ptr @stats_state, align 8, !tbaa !312
  tail call void (ptr, ptr, ptr, ptr, ...) @append_stat(ptr noundef nonnull @.str.188, ptr noundef nonnull %2, ptr noundef %3, ptr noundef nonnull @.str.39, i64 noundef %8)
  %9 = load i64, ptr @stats, align 8, !tbaa !313
  tail call void (ptr, ptr, ptr, ptr, ...) @append_stat(ptr noundef nonnull @.str.189, ptr noundef nonnull %2, ptr noundef %3, ptr noundef nonnull @.str.39, i64 noundef %9)
  tail call void @STATS_UNLOCK() #34
  %10 = tail call i32 @global_page_pool_size(ptr noundef null) #34
  tail call void (ptr, ptr, ptr, ptr, ...) @append_stat(ptr noundef nonnull @.str.190, ptr noundef nonnull %2, ptr noundef %3, ptr noundef nonnull @.str.25, i32 noundef %10)
  tail call void @item_stats_totals(ptr noundef nonnull %2, ptr noundef %3) #34
  br label %nz_strcmp.exit32.thread

11:                                               ; preds = %5
  %cond = icmp eq i32 %1, 5
  br i1 %cond, label %nz_strcmp.exit, label %nz_strcmp.exit32.thread

nz_strcmp.exit:                                   ; preds = %11
  %12 = tail call i32 @strncmp(ptr noundef nonnull readonly dereferenceable(1) %0, ptr noundef nonnull dereferenceable(6) @.str.191, i64 noundef 5) #42
  %.not36 = icmp eq i32 %12, 0
  br i1 %.not36, label %13, label %nz_strcmp.exit29

13:                                               ; preds = %nz_strcmp.exit
  tail call void @item_stats(ptr noundef nonnull %2, ptr noundef %3) #34
  br label %nz_strcmp.exit32.thread

nz_strcmp.exit29:                                 ; preds = %nz_strcmp.exit
  %14 = tail call i32 @strncmp(ptr noundef nonnull readonly dereferenceable(1) %0, ptr noundef nonnull dereferenceable(6) @.str.192, i64 noundef 5) #42
  %.not37 = icmp eq i32 %14, 0
  br i1 %.not37, label %15, label %nz_strcmp.exit32

15:                                               ; preds = %nz_strcmp.exit29
  tail call void @slabs_stats(ptr noundef nonnull %2, ptr noundef %3) #34
  br label %nz_strcmp.exit32.thread

nz_strcmp.exit32:                                 ; preds = %nz_strcmp.exit29
  %16 = tail call i32 @strncmp(ptr noundef nonnull readonly dereferenceable(1) %0, ptr noundef nonnull dereferenceable(6) @.str.193, i64 noundef 5) #42
  %.not38 = icmp eq i32 %16, 0
  br i1 %.not38, label %17, label %nz_strcmp.exit32.thread

17:                                               ; preds = %nz_strcmp.exit32
  tail call void @item_stats_sizes(ptr noundef nonnull %2, ptr noundef %3) #34
  br label %nz_strcmp.exit32.thread

nz_strcmp.exit32.thread:                          ; preds = %11, %4, %nz_strcmp.exit32, %6, %15, %17, %13
  %.0 = phi i1 [ true, %13 ], [ true, %15 ], [ true, %17 ], [ true, %6 ], [ false, %nz_strcmp.exit32 ], [ false, %4 ], [ false, %11 ]
  ret i1 %.0
}